target datalayout = "e-m:e-p270:32:32-p271:32:32-p272:64:64-i64:64-i128:128-f80:128-n8:16:32:64-S128"
target triple = "x86_64-pc-linux-gnu"

%"class.std::basic_string_view" = type { i64, ptr }
%class.cmValue = type { ptr }

; Function Attrs: mustprogress nounwind uwtable
define linkonce_odr dso_local noundef zeroext i1 @_ZNK7cmValue4IsOnEv(ptr noundef nonnull align 8 dereferenceable(8) %0) #4 comdat align 2 {
  %2 = alloca ptr, align 8
  %3 = alloca %"class.std::basic_string_view", align 8
  store ptr %0, ptr %2, align 8
  %4 = load ptr, ptr %2, align 8
  %5 = getelementptr inbounds %class.cmValue, ptr %4, i32 0, i32 0
  %6 = load ptr, ptr %5, align 8
  %7 = icmp ne ptr %6, null
  br i1 %7, label %8, label %21

8:                                                ; preds = %1
  %9 = getelementptr inbounds %class.cmValue, ptr %4, i32 0, i32 0
  %10 = load ptr, ptr %9, align 8
  %11 = call { i64, ptr } @_ZNKSt7__cxx1112basic_stringIcSt11char_traitsIcESaIcEEcvSt17basic_string_viewIcS2_EEv(ptr noundef nonnull align 8 dereferenceable(32) %10) #3
  %12 = getelementptr inbounds { i64, ptr }, ptr %3, i32 0, i32 0
  %13 = extractvalue { i64, ptr } %11, 0
  store i64 %13, ptr %12, align 8
  %14 = getelementptr inbounds { i64, ptr }, ptr %3, i32 0, i32 1
  %15 = extractvalue { i64, ptr } %11, 1
  store ptr %15, ptr %14, align 8
  %16 = getelementptr inbounds { i64, ptr }, ptr %3, i32 0, i32 0
  %17 = load i64, ptr %16, align 8
  %18 = getelementptr inbounds { i64, ptr }, ptr %3, i32 0, i32 1
  %19 = load ptr, ptr %18, align 8
  %20 = call noundef zeroext i1 @_ZN7cmValue4IsOnESt17basic_string_viewIcSt11char_traitsIcEE(i64 %17, ptr %19) #3
  br label %21

21:                                               ; preds = %8, %1
  %22 = phi i1 [ false, %1 ], [ %20, %8 ]
  ret i1 %22
}

; Function Attrs: mustprogress nounwind uwtable
define linkonce_odr dso_local noundef zeroext i1 @_Z6cmIsOn7cmValue(ptr %0) #4 comdat {
  %2 = alloca %class.cmValue, align 8
  %3 = getelementptr inbounds %class.cmValue, ptr %2, i32 0, i32 0
  store ptr %0, ptr %3, align 8
  %4 = call noundef zeroext i1 @_ZNK7cmValue4IsOnEv(ptr noundef nonnull align 8 dereferenceable(8) %2) #3
  ret i1 %4
}

; Function Attrs: mustprogress uwtable
define dso_local noundef zeroext i1 @_ZNK10cmMakefile4IsOnERKNSt7__cxx1112basic_stringIcSt11char_traitsIcESaIcEEE(ptr noundef nonnull align 8 dereferenceable(3520) %0, ptr noundef nonnull align 8 dereferenceable(32) %1) #5 align 2 {
  %3 = alloca ptr, align 8
  %4 = alloca ptr, align 8
  %5 = alloca %class.cmValue, align 8
  store ptr %0, ptr %3, align 8
  store ptr %1, ptr %4, align 8
  %6 = load ptr, ptr %3, align 8
  %7 = load ptr, ptr %4, align 8
  %8 = call ptr @_ZNK10cmMakefile13GetDefinitionERKNSt7__cxx1112basic_stringIcSt11char_traitsIcESaIcEEE(ptr noundef nonnull align 8 dereferenceable(3520) %6, ptr noundef nonnull align 8 dereferenceable(32) %7)
  %9 = getelementptr inbounds %class.cmValue, ptr %5, i32 0, i32 0
  store ptr %8, ptr %9, align 8
  %10 = getelementptr inbounds %class.cmValue, ptr %5, i32 0, i32 0
  %11 = load ptr, ptr %10, align 8
  %12 = call noundef zeroext i1 @_Z6cmIsOn7cmValue(ptr %11)
  ret i1 %12
}