; Function Attrs: mustprogress uwtable
define dso_local noundef zeroext i1 @_ZNK10cmMakefile4IsOnERKNSt7__cxx1112basic_stringIcSt11char_traitsIcESaIcEEE(ptr noundef nonnull align 8 dereferenceable(3520) %0, ptr noundef nonnull align 8 dereferenceable(32) %1) local_unnamed_addr #4 align 2 {
  %3 = tail call ptr @_ZNK10cmMakefile13GetDefinitionERKNSt7__cxx1112basic_stringIcSt11char_traitsIcESaIcEEE(ptr noundef nonnull align 8 dereferenceable(3520) %0, ptr noundef nonnull align 8 dereferenceable(32) %1)
  %.not.i.i = icmp eq ptr %3, null
  br i1 %.not.i.i, label %_Z6cmIsOn7cmValue.exit, label %4

4:                                                ; preds = %2
  %5 = tail call { i64, ptr } @_ZNKSt7__cxx1112basic_stringIcSt11char_traitsIcESaIcEEcvSt17basic_string_viewIcS2_EEv(ptr noundef nonnull align 8 dereferenceable(32) %3) #29
  %6 = extractvalue { i64, ptr } %5, 0
  %7 = extractvalue { i64, ptr } %5, 1
  %8 = tail call noundef zeroext i1 @_ZN7cmValue4IsOnESt17basic_string_viewIcSt11char_traitsIcEE(i64 %6, ptr %7) #29
  br label %_Z6cmIsOn7cmValue.exit

_Z6cmIsOn7cmValue.exit:                           ; preds = %2, %4
  %9 = phi i1 [ false, %2 ], [ %8, %4 ]
  ret i1 %9
}